; Function Attrs: mustprogress uwtable
define void @_ZN5faiss11IndexIVFPQR5resetEv(ptr noundef nonnull align 8 dereferenceable(788) %0) unnamed_addr #2 align 2 personality ptr @__gxx_personality_v0 {
  tail call void @_ZN5faiss8IndexIVF5resetEv(ptr noundef nonnull align 8 dereferenceable(265) %0)
  %2 = getelementptr inbounds nuw i8, ptr %0, i64 760
  %3 = load ptr, ptr %2, align 8, !tbaa !7
  %4 = getelementptr inbounds nuw i8, ptr %0, i64 768
  %5 = load ptr, ptr %4, align 8, !tbaa !20
  %.not.i.i = icmp eq ptr %5, %3
  br i1 %.not.i.i, label %_ZNSt6vectorIhSaIhEE5clearEv.exit, label %6

6:                                                ; preds = %1
  store ptr %3, ptr %4, align 8, !tbaa !20
  br label %_ZNSt6vectorIhSaIhEE5clearEv.exit

_ZNSt6vectorIhSaIhEE5clearEv.exit:                ; preds = %1, %6
  ret void
}